target datalayout = "e-m:e-p270:32:32-p271:32:32-p272:64:64-i64:64-i128:128-f80:128-n8:16:32:64-S128"
target triple = "x86_64-pc-linux-gnu"

%class.PerfData = type { ptr, ptr, i32, i32, i8, i32, ptr, ptr }
%class.ClassPathDirEntry = type { %class.ClassPathEntry, ptr }
%class.ClassPathEntry = type { ptr, ptr }
%struct.stat = type { i64, i64, i64, i32, i32, i32, i32, i64, i64, i64, i64, %struct.timespec, %struct.timespec, %struct.timespec, [3 x i64] }
%struct.timespec = type { i64, i64 }

@_ZN11ClassLoader30_perf_sys_classfile_bytes_readE = hidden global ptr null, align 8
@.str.12 = private unnamed_addr constant [7 x i8] c"%s%s%s\00", align 1
@UsePerfData = external global i8, align 1
@_ZN15ClassFileStream6verifyE = external constant i8, align 1

; Function Attrs: mustprogress nounwind uwtable
define linkonce_odr hidden noundef i32 @_Z12checked_castIilET_T0_(i64 noundef %0) #1 comdat {
  %2 = alloca i64, align 8
  %3 = alloca i32, align 4
  store i64 %0, ptr %2, align 8
  %4 = load i64, ptr %2, align 8
  %5 = trunc i64 %4 to i32
  store i32 %5, ptr %3, align 4
  %6 = load i32, ptr %3, align 4
  ret i32 %6
}

; Function Attrs: mustprogress nounwind uwtable
define linkonce_odr hidden noundef ptr @_ZN11ResourceObjnwEm(i64 noundef %0) #1 comdat align 2 {
  %2 = alloca i64, align 8
  store i64 %0, ptr %2, align 8
  %3 = load i64, ptr %2, align 8
  %4 = call noundef ptr @_Z23resource_allocate_bytesmN17AllocFailStrategy13AllocFailEnumE(i64 noundef %3, i32 noundef 0)
  ret ptr %4
}

; Function Attrs: mustprogress nounwind uwtable
define linkonce_odr hidden void @_ZN15PerfLongVariant3incEl(ptr noundef nonnull align 8 dereferenceable(56) %0, i64 noundef %1) #1 comdat align 2 {
  %3 = alloca ptr, align 8
  %4 = alloca i64, align 8
  store ptr %0, ptr %3, align 8
  store i64 %1, ptr %4, align 8
  %5 = load ptr, ptr %3, align 8
  %6 = load i64, ptr %4, align 8
  %7 = getelementptr inbounds %class.PerfData, ptr %5, i32 0, i32 7
  %8 = load ptr, ptr %7, align 8
  %9 = load i64, ptr %8, align 8
  %10 = add nsw i64 %9, %6
  store i64 %10, ptr %8, align 8
  ret void
}

; Function Attrs: mustprogress nounwind uwtable
define linkonce_odr hidden noundef ptr @_ZN11ClassLoader29perf_sys_classfile_bytes_readEv() #1 comdat align 2 {
  %1 = load ptr, ptr @_ZN11ClassLoader30_perf_sys_classfile_bytes_readE, align 8
  ret ptr %1
}

; Function Attrs: mustprogress nounwind uwtable
define hidden noundef ptr @_ZN17ClassPathDirEntry11open_streamEP10JavaThreadPKc(ptr noundef nonnull align 8 dereferenceable(24) %0, ptr noundef %1, ptr noundef %2) unnamed_addr #1 align 2 {
  %4 = alloca ptr, align 8
  %5 = alloca ptr, align 8
  %6 = alloca ptr, align 8
  %7 = alloca ptr, align 8
  %8 = alloca i64, align 8
  %9 = alloca ptr, align 8
  %10 = alloca i32, align 4
  %11 = alloca %struct.stat, align 8
  %12 = alloca i32, align 4
  %13 = alloca ptr, align 8
  %14 = alloca i64, align 8
  store ptr %0, ptr %5, align 8
  store ptr %1, ptr %6, align 8
  store ptr %2, ptr %7, align 8
  %15 = load ptr, ptr %5, align 8
  %16 = getelementptr inbounds %class.ClassPathDirEntry, ptr %15, i32 0, i32 1
  %17 = load ptr, ptr %16, align 8
  %18 = call i64 @strlen(ptr noundef %17) #12
  %19 = load ptr, ptr %7, align 8
  %20 = call i64 @strlen(ptr noundef %19) #12
  %21 = add i64 %18, %20
  %22 = call noundef ptr @_ZN2os14file_separatorEv()
  %23 = call i64 @strlen(ptr noundef %22) #12
  %24 = add i64 %21, %23
  %25 = add i64 %24, 1
  store i64 %25, ptr %8, align 8
  %26 = load ptr, ptr %6, align 8
  %27 = load i64, ptr %8, align 8
  %28 = mul i64 %27, 1
  %29 = call noundef ptr @_Z23resource_allocate_bytesP6ThreadmN17AllocFailStrategy13AllocFailEnumE(ptr noundef %26, i64 noundef %28, i32 noundef 0)
  store ptr %29, ptr %9, align 8
  %30 = load ptr, ptr %9, align 8
  %31 = load i64, ptr %8, align 8
  %32 = getelementptr inbounds %class.ClassPathDirEntry, ptr %15, i32 0, i32 1
  %33 = load ptr, ptr %32, align 8
  %34 = call noundef ptr @_ZN2os14file_separatorEv()
  %35 = load ptr, ptr %7, align 8
  %36 = call i32 (ptr, i64, ptr, ...) @jio_snprintf(ptr noundef %30, i64 noundef %31, ptr noundef @.str.12, ptr noundef %33, ptr noundef %34, ptr noundef %35)
  store i32 %36, ptr %10, align 4
  %37 = load ptr, ptr %9, align 8
  %38 = call noundef i32 @_ZN2os4statEPKcP4stat(ptr noundef %37, ptr noundef %11)
  %39 = icmp eq i32 %38, 0
  br i1 %39, label %40, label %80

40:                                               ; preds = %3
  %41 = load ptr, ptr %9, align 8
  %42 = call noundef i32 @_ZN2os4openEPKcii(ptr noundef %41, i32 noundef 0, i32 noundef 0)
  store i32 %42, ptr %12, align 4
  %43 = load i32, ptr %12, align 4
  %44 = icmp ne i32 %43, -1
  br i1 %44, label %45, label %79

45:                                               ; preds = %40
  %46 = load ptr, ptr %6, align 8
  %47 = getelementptr inbounds %struct.stat, ptr %11, i32 0, i32 8
  %48 = load i64, ptr %47, align 8
  %49 = mul i64 %48, 1
  %50 = call noundef ptr @_Z23resource_allocate_bytesP6ThreadmN17AllocFailStrategy13AllocFailEnumE(ptr noundef %46, i64 noundef %49, i32 noundef 0)
  store ptr %50, ptr %13, align 8
  %51 = load i32, ptr %12, align 4
  %52 = load ptr, ptr %13, align 8
  %53 = getelementptr inbounds %struct.stat, ptr %11, i32 0, i32 8
  %54 = load i64, ptr %53, align 8
  %55 = call i64 @read(i32 noundef %51, ptr noundef %52, i64 noundef %54)
  store i64 %55, ptr %14, align 8
  %56 = load i32, ptr %12, align 4
  %57 = call i32 @close(i32 noundef %56)
  %58 = load i64, ptr %14, align 8
  %59 = getelementptr inbounds %struct.stat, ptr %11, i32 0, i32 8
  %60 = load i64, ptr %59, align 8
  %61 = icmp eq i64 %58, %60
  br i1 %61, label %62, label %78

62:                                               ; preds = %45
  %63 = load i8, ptr @UsePerfData, align 1
  %64 = trunc i8 %63 to i1
  br i1 %64, label %65, label %68

65:                                               ; preds = %62
  %66 = call noundef ptr @_ZN11ClassLoader29perf_sys_classfile_bytes_readEv()
  %67 = load i64, ptr %14, align 8
  call void @_ZN15PerfLongVariant3incEl(ptr noundef nonnull align 8 dereferenceable(56) %66, i64 noundef %67)
  br label %68

68:                                               ; preds = %65, %62
  %69 = call noundef ptr @_ZN11ResourceObjnwEm(i64 noundef 48)
  %70 = load ptr, ptr %13, align 8
  %71 = getelementptr inbounds %struct.stat, ptr %11, i32 0, i32 8
  %72 = load i64, ptr %71, align 8
  %73 = call noundef i32 @_Z12checked_castIilET_T0_(i64 noundef %72)
  %74 = getelementptr inbounds %class.ClassPathDirEntry, ptr %15, i32 0, i32 1
  %75 = load ptr, ptr %74, align 8
  %76 = load i8, ptr @_ZN15ClassFileStream6verifyE, align 1
  %77 = trunc i8 %76 to i1
  call void @_ZN15ClassFileStreamC1EPKhiPKcbb(ptr noundef nonnull align 8 dereferenceable(42) %69, ptr noundef %70, i32 noundef %73, ptr noundef %75, i1 noundef zeroext %77, i1 noundef zeroext false)
  store ptr %69, ptr %4, align 8
  br label %85

78:                                               ; preds = %45
  br label %79

79:                                               ; preds = %78, %40
  br label %80

80:                                               ; preds = %79, %3
  %81 = load ptr, ptr %6, align 8
  %82 = load ptr, ptr %9, align 8
  %83 = load i64, ptr %8, align 8
  %84 = mul i64 %83, 1
  call void @_Z19resource_free_bytesP6ThreadPcm(ptr noundef %81, ptr noundef %82, i64 noundef %84)
  store ptr null, ptr %4, align 8
  br label %85

85:                                               ; preds = %80, %68
  %86 = load ptr, ptr %4, align 8
  ret ptr %86
}