; Function Attrs: mustprogress nounwind uwtable
define hidden noundef ptr @_ZN17ClassPathDirEntry11open_streamEP10JavaThreadPKc(ptr nocapture noundef nonnull readonly align 8 dereferenceable(24) %0, ptr noundef %1, ptr noundef %2) unnamed_addr #0 align 2 {
  %4 = alloca %struct.stat, align 8
  %5 = getelementptr inbounds i8, ptr %0, i64 16
  %6 = load ptr, ptr %5, align 8
  %7 = tail call i64 @strlen(ptr noundef nonnull dereferenceable(1) %6) #21
  %8 = tail call i64 @strlen(ptr noundef nonnull dereferenceable(1) %2) #21
  %9 = tail call noundef ptr @_ZN2os14file_separatorEv() #20
  %10 = tail call i64 @strlen(ptr noundef nonnull dereferenceable(1) %9) #21
  %11 = add i64 %7, 1
  %12 = add i64 %11, %8
  %13 = add i64 %12, %10
  %14 = tail call noundef ptr @_Z23resource_allocate_bytesP6ThreadmN17AllocFailStrategy13AllocFailEnumE(ptr noundef %1, i64 noundef %13, i32 noundef 0) #20
  %15 = load ptr, ptr %5, align 8
  %16 = tail call noundef ptr @_ZN2os14file_separatorEv() #20
  %17 = tail call i32 (ptr, i64, ptr, ...) @jio_snprintf(ptr noundef %14, i64 noundef %13, ptr noundef nonnull @.str.12, ptr noundef %15, ptr noundef %16, ptr noundef %2) #20
  %18 = call noundef i32 @_ZN2os4statEPKcP4stat(ptr noundef %14, ptr noundef nonnull %4) #20
  %19 = icmp eq i32 %18, 0
  br i1 %19, label %20, label %47

20:                                               ; preds = %3
  %21 = call noundef i32 @_ZN2os4openEPKcii(ptr noundef %14, i32 noundef 0, i32 noundef 0) #20
  %.not = icmp eq i32 %21, -1
  br i1 %.not, label %47, label %22

22:                                               ; preds = %20
  %23 = getelementptr inbounds i8, ptr %4, i64 48
  %24 = load i64, ptr %23, align 8
  %25 = call noundef ptr @_Z23resource_allocate_bytesP6ThreadmN17AllocFailStrategy13AllocFailEnumE(ptr noundef %1, i64 noundef %24, i32 noundef 0) #20
  %26 = load i64, ptr %23, align 8
  %27 = call i64 @read(i32 noundef %21, ptr noundef %25, i64 noundef %26) #20
  %28 = call i32 @close(i32 noundef %21) #20
  %29 = load i64, ptr %23, align 8
  %30 = icmp eq i64 %27, %29
  br i1 %30, label %31, label %47

31:                                               ; preds = %22
  %32 = load i8, ptr @UsePerfData, align 1
  %33 = trunc i8 %32 to i1
  br i1 %33, label %34, label %40

34:                                               ; preds = %31
  %35 = load ptr, ptr @_ZN11ClassLoader30_perf_sys_classfile_bytes_readE, align 8
  %36 = getelementptr inbounds i8, ptr %35, i64 40
  %37 = load ptr, ptr %36, align 8
  %38 = load i64, ptr %37, align 8
  %39 = add nsw i64 %38, %27
  store i64 %39, ptr %37, align 8
  br label %40

40:                                               ; preds = %34, %31
  %41 = call noundef ptr @_Z23resource_allocate_bytesmN17AllocFailStrategy13AllocFailEnumE(i64 noundef 48, i32 noundef 0) #20
  %42 = load i64, ptr %23, align 8
  %43 = trunc i64 %42 to i32
  %44 = load ptr, ptr %5, align 8
  %45 = load i8, ptr @_ZN15ClassFileStream6verifyE, align 1
  %46 = trunc i8 %45 to i1
  call void @_ZN15ClassFileStreamC1EPKhiPKcbb(ptr noundef nonnull align 8 dereferenceable(42) %41, ptr noundef %25, i32 noundef %43, ptr noundef %44, i1 noundef zeroext %46, i1 noundef zeroext false) #20
  br label %48

47:                                               ; preds = %20, %22, %3
  call void @_Z19resource_free_bytesP6ThreadPcm(ptr noundef %1, ptr noundef %14, i64 noundef %13) #20
  br label %48

48:                                               ; preds = %47, %40
  %.0 = phi ptr [ %41, %40 ], [ null, %47 ]
  ret ptr %.0
}